target datalayout = "e-m:e-p270:32:32-p271:32:32-p272:64:64-i64:64-i128:128-f80:128-n8:16:32:64-S128"
target triple = "x86_64-pc-linux-gnu"

; Function Attrs: mustprogress nounwind uwtable
define internal noundef ptr @_ZN6icu_7712_GLOBAL__N_110skipSpacesEPKcS2_(ptr noundef %0, ptr noundef %1) #0 {
  %3 = alloca ptr, align 8
  %4 = alloca ptr, align 8
  store ptr %0, ptr %3, align 8, !tbaa !17
  store ptr %1, ptr %4, align 8, !tbaa !17
  br label %5

5:                                                ; preds = %16, %2
  %6 = load ptr, ptr %3, align 8, !tbaa !17
  %7 = load ptr, ptr %4, align 8, !tbaa !17
  %8 = icmp ult ptr %6, %7
  br i1 %8, label %9, label %14

9:                                                ; preds = %5
  %10 = load ptr, ptr %3, align 8, !tbaa !17
  %11 = load i8, ptr %10, align 1, !tbaa !34
  %12 = sext i8 %11 to i32
  %13 = icmp eq i32 %12, 32
  br label %14

14:                                               ; preds = %9, %5
  %15 = phi i1 [ false, %5 ], [ %13, %9 ]
  br i1 %15, label %16, label %19

16:                                               ; preds = %14
  %17 = load ptr, ptr %3, align 8, !tbaa !17
  %18 = getelementptr inbounds nuw i8, ptr %17, i32 1
  store ptr %18, ptr %3, align 8, !tbaa !17
  br label %5, !llvm.loop !43

19:                                               ; preds = %14
  %20 = load ptr, ptr %3, align 8, !tbaa !17
  ret ptr %20
}

; Function Attrs: mustprogress nounwind uwtable
define internal noundef i32 @_ZN6icu_7712_GLOBAL__N_111parseWeightERPKcS2_(ptr noundef nonnull align 8 dereferenceable(8) %0, ptr noundef %1) #0 {
  %3 = alloca i32, align 4
  %4 = alloca ptr, align 8
  %5 = alloca ptr, align 8
  %6 = alloca i8, align 1
  %7 = alloca i32, align 4
  %8 = alloca i32, align 4
  %9 = alloca i32, align 4
  store ptr %0, ptr %4, align 8, !tbaa !54
  store ptr %1, ptr %5, align 8, !tbaa !17
  %10 = load ptr, ptr %4, align 8, !tbaa !54
  %11 = load ptr, ptr %10, align 8, !tbaa !17
  %12 = load ptr, ptr %5, align 8, !tbaa !17
  %13 = call noundef ptr @_ZN6icu_7712_GLOBAL__N_110skipSpacesEPKcS2_(ptr noundef %11, ptr noundef %12)
  %14 = load ptr, ptr %4, align 8, !tbaa !54
  store ptr %13, ptr %14, align 8, !tbaa !17
  call void @llvm.lifetime.start.p0(i64 1, ptr %6) #11
  %15 = load ptr, ptr %4, align 8, !tbaa !54
  %16 = load ptr, ptr %15, align 8, !tbaa !17
  %17 = load ptr, ptr %5, align 8, !tbaa !17
  %18 = icmp eq ptr %16, %17
  br i1 %18, label %29, label %19

19:                                               ; preds = %2
  %20 = load ptr, ptr %4, align 8, !tbaa !54
  %21 = load ptr, ptr %20, align 8, !tbaa !17
  %22 = load i8, ptr %21, align 1, !tbaa !34
  store i8 %22, ptr %6, align 1, !tbaa !34
  %23 = sext i8 %22 to i32
  %24 = icmp ne i32 %23, 48
  br i1 %24, label %25, label %30

25:                                               ; preds = %19
  %26 = load i8, ptr %6, align 1, !tbaa !34
  %27 = sext i8 %26 to i32
  %28 = icmp ne i32 %27, 49
  br i1 %28, label %29, label %30

29:                                               ; preds = %25, %2
  store i32 -1, ptr %3, align 4
  store i32 1, ptr %7, align 4
  br label %105

30:                                               ; preds = %25, %19
  call void @llvm.lifetime.start.p0(i64 4, ptr %8) #11
  %31 = load i8, ptr %6, align 1, !tbaa !34
  %32 = sext i8 %31 to i32
  %33 = sub nsw i32 %32, 48
  %34 = mul nsw i32 %33, 1000
  store i32 %34, ptr %8, align 4, !tbaa !14
  %35 = load ptr, ptr %4, align 8, !tbaa !54
  %36 = load ptr, ptr %35, align 8, !tbaa !17
  %37 = getelementptr inbounds nuw i8, ptr %36, i32 1
  store ptr %37, ptr %35, align 8, !tbaa !17
  %38 = load ptr, ptr %5, align 8, !tbaa !17
  %39 = icmp eq ptr %37, %38
  br i1 %39, label %46, label %40

40:                                               ; preds = %30
  %41 = load ptr, ptr %4, align 8, !tbaa !54
  %42 = load ptr, ptr %41, align 8, !tbaa !17
  %43 = load i8, ptr %42, align 1, !tbaa !34
  %44 = sext i8 %43 to i32
  %45 = icmp ne i32 %44, 46
  br i1 %45, label %46, label %48

46:                                               ; preds = %40, %30
  %47 = load i32, ptr %8, align 4, !tbaa !14
  store i32 %47, ptr %3, align 4
  store i32 1, ptr %7, align 4
  br label %104

48:                                               ; preds = %40
  call void @llvm.lifetime.start.p0(i64 4, ptr %9) #11
  store i32 100, ptr %9, align 4, !tbaa !14
  br label %49

49:                                               ; preds = %95, %48
  %50 = load ptr, ptr %4, align 8, !tbaa !54
  %51 = load ptr, ptr %50, align 8, !tbaa !17
  %52 = getelementptr inbounds nuw i8, ptr %51, i32 1
  store ptr %52, ptr %50, align 8, !tbaa !17
  %53 = load ptr, ptr %5, align 8, !tbaa !17
  %54 = icmp ne ptr %52, %53
  br i1 %54, label %55, label %65

55:                                               ; preds = %49
  %56 = load ptr, ptr %4, align 8, !tbaa !54
  %57 = load ptr, ptr %56, align 8, !tbaa !17
  %58 = load i8, ptr %57, align 1, !tbaa !34
  store i8 %58, ptr %6, align 1, !tbaa !34
  %59 = sext i8 %58 to i32
  %60 = icmp sle i32 48, %59
  br i1 %60, label %61, label %65

61:                                               ; preds = %55
  %62 = load i8, ptr %6, align 1, !tbaa !34
  %63 = sext i8 %62 to i32
  %64 = icmp sle i32 %63, 57
  br label %65

65:                                               ; preds = %61, %55, %49
  %66 = phi i1 [ false, %55 ], [ false, %49 ], [ %64, %61 ]
  br i1 %66, label %67, label %96

67:                                               ; preds = %65
  %68 = load i8, ptr %6, align 1, !tbaa !34
  %69 = sext i8 %68 to i32
  %70 = sub nsw i32 %69, 48
  %71 = trunc i32 %70 to i8
  store i8 %71, ptr %6, align 1, !tbaa !34
  %72 = load i32, ptr %9, align 4, !tbaa !14
  %73 = icmp sgt i32 %72, 0
  br i1 %73, label %74, label %83

74:                                               ; preds = %67
  %75 = load i8, ptr %6, align 1, !tbaa !34
  %76 = sext i8 %75 to i32
  %77 = load i32, ptr %9, align 4, !tbaa !14
  %78 = mul nsw i32 %76, %77
  %79 = load i32, ptr %8, align 4, !tbaa !14
  %80 = add nsw i32 %79, %78
  store i32 %80, ptr %8, align 4, !tbaa !14
  %81 = load i32, ptr %9, align 4, !tbaa !14
  %82 = sdiv i32 %81, 10
  store i32 %82, ptr %9, align 4, !tbaa !14
  br label %95

83:                                               ; preds = %67
  %84 = load i32, ptr %9, align 4, !tbaa !14
  %85 = icmp eq i32 %84, 0
  br i1 %85, label %86, label %94

86:                                               ; preds = %83
  %87 = load i8, ptr %6, align 1, !tbaa !34
  %88 = sext i8 %87 to i32
  %89 = icmp sge i32 %88, 5
  br i1 %89, label %90, label %93

90:                                               ; preds = %86
  %91 = load i32, ptr %8, align 4, !tbaa !14
  %92 = add nsw i32 %91, 1
  store i32 %92, ptr %8, align 4, !tbaa !14
  br label %93

93:                                               ; preds = %90, %86
  store i32 -1, ptr %9, align 4, !tbaa !14
  br label %94

94:                                               ; preds = %93, %83
  br label %95

95:                                               ; preds = %94, %74
  br label %49, !llvm.loop !57

96:                                               ; preds = %65
  %97 = load i32, ptr %8, align 4, !tbaa !14
  %98 = icmp sle i32 %97, 1000
  br i1 %98, label %99, label %101

99:                                               ; preds = %96
  %100 = load i32, ptr %8, align 4, !tbaa !14
  br label %102

101:                                              ; preds = %96
  br label %102

102:                                              ; preds = %101, %99
  %103 = phi i32 [ %100, %99 ], [ -1, %101 ]
  store i32 %103, ptr %3, align 4
  store i32 1, ptr %7, align 4
  call void @llvm.lifetime.end.p0(i64 4, ptr %9) #11
  br label %104

104:                                              ; preds = %102, %46
  call void @llvm.lifetime.end.p0(i64 4, ptr %8) #11
  br label %105

105:                                              ; preds = %104, %29
  call void @llvm.lifetime.end.p0(i64 1, ptr %6) #11
  %106 = load i32, ptr %3, align 4
  ret i32 %106
}