; Function Attrs: mustprogress nofree norecurse nosync nounwind memory(read, argmem: readwrite, inaccessiblemem: none) uwtable
define internal fastcc noundef i32 @_ZN6icu_7712_GLOBAL__N_111parseWeightERPKcS2_(ptr noundef nonnull align 8 captures(none) dereferenceable(8) %0, ptr noundef %1) unnamed_addr #12 {
  %3 = load ptr, ptr %0, align 8, !tbaa !25
  %4 = icmp ult ptr %3, %1
  br i1 %4, label %.lr.ph.preheader.i, label %_ZN6icu_7712_GLOBAL__N_110skipSpacesEPKcS2_.exit

.lr.ph.preheader.i:                               ; preds = %2
  %5 = ptrtoint ptr %1 to i64
  %6 = ptrtoint ptr %3 to i64
  %7 = sub i64 %5, %6
  %scevgep.i = getelementptr i8, ptr %3, i64 %7
  br label %.lr.ph.i

.lr.ph.i:                                         ; preds = %10, %.lr.ph.preheader.i
  %.05.i = phi ptr [ %11, %10 ], [ %3, %.lr.ph.preheader.i ]
  %8 = load i8, ptr %.05.i, align 1, !tbaa !26
  %9 = icmp eq i8 %8, 32
  br i1 %9, label %10, label %_ZN6icu_7712_GLOBAL__N_110skipSpacesEPKcS2_.exit

10:                                               ; preds = %.lr.ph.i
  %11 = getelementptr inbounds nuw i8, ptr %.05.i, i64 1
  %exitcond.not.i = icmp eq ptr %11, %1
  br i1 %exitcond.not.i, label %_ZN6icu_7712_GLOBAL__N_110skipSpacesEPKcS2_.exit, label %.lr.ph.i, !llvm.loop !27

_ZN6icu_7712_GLOBAL__N_110skipSpacesEPKcS2_.exit: ; preds = %.lr.ph.i, %10, %2
  %.0.lcssa.i = phi ptr [ %3, %2 ], [ %.05.i, %.lr.ph.i ], [ %scevgep.i, %10 ]
  store ptr %.0.lcssa.i, ptr %0, align 8, !tbaa !25
  %12 = icmp eq ptr %.0.lcssa.i, %1
  br i1 %12, label %44, label %13

13:                                               ; preds = %_ZN6icu_7712_GLOBAL__N_110skipSpacesEPKcS2_.exit
  %14 = load i8, ptr %.0.lcssa.i, align 1, !tbaa !26
  %15 = add i8 %14, -50
  %or.cond = icmp ult i8 %15, -2
  br i1 %or.cond, label %44, label %16

16:                                               ; preds = %13
  %17 = zext nneg i8 %14 to i32
  %18 = mul nuw nsw i32 %17, 1000
  %19 = add nsw i32 %18, -48000
  %20 = getelementptr inbounds nuw i8, ptr %.0.lcssa.i, i64 1
  store ptr %20, ptr %0, align 8, !tbaa !25
  %21 = icmp eq ptr %20, %1
  br i1 %21, label %44, label %22

22:                                               ; preds = %16
  %23 = load i8, ptr %20, align 1, !tbaa !26
  %.not = icmp eq i8 %23, 46
  br i1 %.not, label %.preheader, label %44

.preheader:                                       ; preds = %22
  %24 = getelementptr inbounds nuw i8, ptr %.0.lcssa.i, i64 2
  store ptr %24, ptr %0, align 8, !tbaa !25
  %.not4142 = icmp eq ptr %24, %1
  br i1 %.not4142, label %.critedge, label %.lr.ph

.lr.ph:                                           ; preds = %.preheader, %40
  %25 = phi ptr [ %41, %40 ], [ %24, %.preheader ]
  %.044 = phi i32 [ %.1, %40 ], [ 100, %.preheader ]
  %.03243 = phi i32 [ %.133, %40 ], [ %19, %.preheader ]
  %26 = load i8, ptr %25, align 1, !tbaa !26
  %27 = add i8 %26, -48
  %or.cond5 = icmp ult i8 %27, 10
  br i1 %or.cond5, label %28, label %.critedge

28:                                               ; preds = %.lr.ph
  %29 = icmp sgt i32 %.044, 0
  br i1 %29, label %30, label %35

30:                                               ; preds = %28
  %31 = zext nneg i8 %27 to i32
  %32 = mul nuw nsw i32 %.044, %31
  %33 = add nsw i32 %32, %.03243
  %34 = udiv i32 %.044, 10
  br label %40

35:                                               ; preds = %28
  %36 = icmp eq i32 %.044, 0
  br i1 %36, label %37, label %40

37:                                               ; preds = %35
  %38 = icmp samesign ugt i8 %27, 4
  %39 = zext i1 %38 to i32
  %spec.select = add nsw i32 %.03243, %39
  br label %40

40:                                               ; preds = %35, %37, %30
  %.133 = phi i32 [ %33, %30 ], [ %spec.select, %37 ], [ %.03243, %35 ]
  %.1 = phi i32 [ %34, %30 ], [ -1, %37 ], [ %.044, %35 ]
  %41 = getelementptr inbounds nuw i8, ptr %25, i64 1
  store ptr %41, ptr %0, align 8, !tbaa !25
  %.not41 = icmp eq ptr %41, %1
  br i1 %.not41, label %.critedge, label %.lr.ph, !llvm.loop !41

.critedge:                                        ; preds = %40, %.lr.ph, %.preheader
  %.032.lcssa = phi i32 [ %19, %.preheader ], [ %.03243, %.lr.ph ], [ %.133, %40 ]
  %42 = icmp slt i32 %.032.lcssa, 1001
  %43 = select i1 %42, i32 %.032.lcssa, i32 -1
  br label %44

44:                                               ; preds = %.critedge, %22, %16, %_ZN6icu_7712_GLOBAL__N_110skipSpacesEPKcS2_.exit, %13
  %.034 = phi i32 [ -1, %13 ], [ -1, %_ZN6icu_7712_GLOBAL__N_110skipSpacesEPKcS2_.exit ], [ %43, %.critedge ], [ %19, %22 ], [ %19, %16 ]
  ret i32 %.034
}